; Function Attrs: mustprogress uwtable
define hidden void @_ZN4cvc58internal6theory11quantifiers9ExprMiner10initializeERKSt6vectorINS0_12NodeTemplateILb1EEESaIS6_EEPNS2_12SygusSamplerE(ptr noundef nonnull align 8 dereferenceable(120) initializes((64, 72)) %0, ptr noundef nonnull readonly align 8 captures(none) dereferenceable(24) %1, ptr noundef %2) unnamed_addr #3 align 2 {
  %4 = getelementptr inbounds nuw i8, ptr %0, i64 64
  store ptr %2, ptr %4, align 8, !tbaa !3
  %5 = getelementptr inbounds nuw i8, ptr %0, i64 16
  %6 = getelementptr inbounds nuw i8, ptr %0, i64 24
  %7 = load ptr, ptr %6, align 8, !tbaa !26
  %8 = load ptr, ptr %1, align 8, !tbaa !26
  %9 = getelementptr inbounds nuw i8, ptr %1, i64 8
  %10 = load ptr, ptr %9, align 8, !tbaa !26
  %11 = load ptr, ptr %5, align 8, !tbaa !26
  %12 = ptrtoint ptr %7 to i64
  %13 = ptrtoint ptr %11 to i64
  %14 = sub i64 %12, %13
  %15 = getelementptr inbounds i8, ptr %11, i64 %14
  tail call void @_ZNSt6vectorIN4cvc58internal12NodeTemplateILb1EEESaIS3_EE15_M_range_insertIN9__gnu_cxx17__normal_iteratorIPKS3_S5_EEEEvNS8_IPS3_S5_EET_SE_St20forward_iterator_tag(ptr noundef nonnull align 8 dereferenceable(24) %5, ptr %15, ptr %8, ptr %10)
  ret void
}